ca65 V2.19 - Git 1e1e8a686
Main file   : CMakeFiles/3dcube.dir/src/3dcube.c.21.0.s
Current file: CMakeFiles/3dcube.dir/src/3dcube.c.21.0.s

000000r 1               ;
000000r 1               ; File generated by cc65 v 2.19 - Git 1e1e8a686
000000r 1               ;
000000r 1               	.fopt		compiler,"cc65 v 2.19 - Git 1e1e8a686"
000000r 1               	.setcpu		"W65C02"
000000r 1               	.smart		on
000000r 1               	.autoimport	on
000000r 1               	.case		on
000000r 1               	.debuginfo	off
000000r 1               	.importzp	c_sp, sreg, regsave, regbank
000000r 1               	.importzp	tmp1, tmp2, tmp3, tmp4, ptr1, ptr2, ptr3, ptr4
000000r 1               	.macpack	longbranch
000000r 2               .macro  jeq     Target
000000r 2                       .if     .match(Target, 0)
000000r 2                       bne     *+5
000000r 2                       jmp     Target
000000r 2                       .elseif .def(Target) .and .const((*-2)-(Target)) .and ((*+2)-(Target) <= 127)
000000r 2                               beq     Target
000000r 2                       .else
000000r 2                               bne     *+5
000000r 2                               jmp     Target
000000r 2                       .endif
000000r 2               .endmacro
000000r 2               .macro  jne     Target
000000r 2                       .if     .match(Target, 0)
000000r 2                               beq     *+5
000000r 2                               jmp     Target
000000r 2                       .elseif .def(Target) .and .const((*-2)-(Target)) .and ((*+2)-(Target) <= 127)
000000r 2                               bne     Target
000000r 2                       .else
000000r 2                               beq     *+5
000000r 2                               jmp     Target
000000r 2                       .endif
000000r 2               .endmacro
000000r 2               .macro  jmi     Target
000000r 2                       .if     .match(Target, 0)
000000r 2                               bpl     *+5
000000r 2                               jmp     Target
000000r 2                       .elseif .def(Target) .and .const((*-2)-(Target)) .and ((*+2)-(Target) <= 127)
000000r 2                               bmi     Target
000000r 2                       .else
000000r 2                               bpl     *+5
000000r 2                               jmp     Target
000000r 2                       .endif
000000r 2               .endmacro
000000r 2               .macro  jpl     Target
000000r 2                       .if     .match(Target, 0)
000000r 2                               bmi     *+5
000000r 2                               jmp     Target
000000r 2                       .elseif .def(Target) .and .const((*-2)-(Target)) .and ((*+2)-(Target) <= 127)
000000r 2                               bpl     Target
000000r 2                       .else
000000r 2                               bmi     *+5
000000r 2                               jmp     Target
000000r 2                       .endif
000000r 2               .endmacro
000000r 2               .macro  jcs     Target
000000r 2                       .if     .match(Target, 0)
000000r 2                               bcc     *+5
000000r 2                               jmp     Target
000000r 2                       .elseif .def(Target) .and .const((*-2)-(Target)) .and ((*+2)-(Target) <= 127)
000000r 2                               bcs     Target
000000r 2                       .else
000000r 2                               bcc     *+5
000000r 2                               jmp     Target
000000r 2                       .endif
000000r 2               .endmacro
000000r 2               .macro  jcc     Target
000000r 2                       .if     .match(Target, 0)
000000r 2                               bcs     *+5
000000r 2                               jmp     Target
000000r 2                       .elseif .def(Target) .and .const((*-2)-(Target)) .and ((*+2)-(Target) <= 127)
000000r 2                               bcc     Target
000000r 2                       .else
000000r 2                               bcs     *+5
000000r 2                               jmp     Target
000000r 2                       .endif
000000r 2               .endmacro
000000r 2               .macro  jvs     Target
000000r 2                       .if     .match(Target, 0)
000000r 2                               bvc     *+5
000000r 2                               jmp     Target
000000r 2                       .elseif .def(Target) .and .const((*-2)-(Target)) .and ((*+2)-(Target) <= 127)
000000r 2                               bvs     Target
000000r 2                       .else
000000r 2                               bvc     *+5
000000r 2                               jmp     Target
000000r 2                       .endif
000000r 2               .endmacro
000000r 2               .macro  jvc     Target
000000r 2                       .if     .match(Target, 0)
000000r 2                               bvs     *+5
000000r 2                               jmp     Target
000000r 2                       .elseif .def(Target) .and .const((*-2)-(Target)) .and ((*+2)-(Target) <= 127)
000000r 2                               bvc     Target
000000r 2                       .else
000000r 2                               bvs     *+5
000000r 2                               jmp     Target
000000r 2                       .endif
000000r 2               .endmacro
000000r 2               
000000r 1               	.forceimport	__STARTUP__
000000r 1               	.import		_xreg
000000r 1               	.import		_exit
000000r 1               	.export		_main
000000r 1               
000000r 1               .segment	"RODATA"
000000r 1               
000000r 1               _verts:
000000r 1  CE           	.byte	$CE
000001r 1  CE           	.byte	$CE
000002r 1  CE           	.byte	$CE
000003r 1  32           	.byte	$32
000004r 1  CE           	.byte	$CE
000005r 1  CE           	.byte	$CE
000006r 1  32           	.byte	$32
000007r 1  32           	.byte	$32
000008r 1  CE           	.byte	$CE
000009r 1  CE           	.byte	$CE
00000Ar 1  32           	.byte	$32
00000Br 1  CE           	.byte	$CE
00000Cr 1  CE           	.byte	$CE
00000Dr 1  CE           	.byte	$CE
00000Er 1  32           	.byte	$32
00000Fr 1  32           	.byte	$32
000010r 1  CE           	.byte	$CE
000011r 1  32           	.byte	$32
000012r 1  32           	.byte	$32
000013r 1  32           	.byte	$32
000014r 1  32           	.byte	$32
000015r 1  CE           	.byte	$CE
000016r 1  32           	.byte	$32
000017r 1  32           	.byte	$32
000018r 1               _edges:
000018r 1  00           	.byte	$00
000019r 1  01           	.byte	$01
00001Ar 1  01           	.byte	$01
00001Br 1  02           	.byte	$02
00001Cr 1  02           	.byte	$02
00001Dr 1  03           	.byte	$03
00001Er 1  03           	.byte	$03
00001Fr 1  00           	.byte	$00
000020r 1  04           	.byte	$04
000021r 1  05           	.byte	$05
000022r 1  05           	.byte	$05
000023r 1  06           	.byte	$06
000024r 1  06           	.byte	$06
000025r 1  07           	.byte	$07
000026r 1  07           	.byte	$07
000027r 1  04           	.byte	$04
000028r 1  00           	.byte	$00
000029r 1  04           	.byte	$04
00002Ar 1  01           	.byte	$01
00002Br 1  05           	.byte	$05
00002Cr 1  02           	.byte	$02
00002Dr 1  06           	.byte	$06
00002Er 1  03           	.byte	$03
00002Fr 1  07           	.byte	$07
000030r 1               _bitmask:
000030r 1  80           	.byte	$80
000031r 1  40           	.byte	$40
000032r 1  20           	.byte	$20
000033r 1  10           	.byte	$10
000034r 1  08           	.byte	$08
000035r 1  04           	.byte	$04
000036r 1  02           	.byte	$02
000037r 1  01           	.byte	$01
000038r 1               _sin_tab:
000038r 1  00 00        	.word	$0000
00003Ar 1  04 00        	.word	$0004
00003Cr 1  09 00        	.word	$0009
00003Er 1  0D 00        	.word	$000D
000040r 1  12 00        	.word	$0012
000042r 1  16 00        	.word	$0016
000044r 1  1B 00        	.word	$001B
000046r 1  1F 00        	.word	$001F
000048r 1  24 00        	.word	$0024
00004Ar 1  28 00        	.word	$0028
00004Cr 1  2C 00        	.word	$002C
00004Er 1  31 00        	.word	$0031
000050r 1  35 00        	.word	$0035
000052r 1  3A 00        	.word	$003A
000054r 1  3E 00        	.word	$003E
000056r 1  42 00        	.word	$0042
000058r 1  47 00        	.word	$0047
00005Ar 1  4B 00        	.word	$004B
00005Cr 1  4F 00        	.word	$004F
00005Er 1  53 00        	.word	$0053
000060r 1  58 00        	.word	$0058
000062r 1  5C 00        	.word	$005C
000064r 1  60 00        	.word	$0060
000066r 1  64 00        	.word	$0064
000068r 1  68 00        	.word	$0068
00006Ar 1  6C 00        	.word	$006C
00006Cr 1  70 00        	.word	$0070
00006Er 1  74 00        	.word	$0074
000070r 1  78 00        	.word	$0078
000072r 1  7C 00        	.word	$007C
000074r 1  80 00        	.word	$0080
000076r 1  84 00        	.word	$0084
000078r 1  88 00        	.word	$0088
00007Ar 1  8B 00        	.word	$008B
00007Cr 1  8F 00        	.word	$008F
00007Er 1  93 00        	.word	$0093
000080r 1  96 00        	.word	$0096
000082r 1  9A 00        	.word	$009A
000084r 1  9E 00        	.word	$009E
000086r 1  A1 00        	.word	$00A1
000088r 1  A5 00        	.word	$00A5
00008Ar 1  A8 00        	.word	$00A8
00008Cr 1  AB 00        	.word	$00AB
00008Er 1  AF 00        	.word	$00AF
000090r 1  B2 00        	.word	$00B2
000092r 1  B5 00        	.word	$00B5
000094r 1  B8 00        	.word	$00B8
000096r 1  BB 00        	.word	$00BB
000098r 1  BE 00        	.word	$00BE
00009Ar 1  C1 00        	.word	$00C1
00009Cr 1  C4 00        	.word	$00C4
00009Er 1  C7 00        	.word	$00C7
0000A0r 1  CA 00        	.word	$00CA
0000A2r 1  CC 00        	.word	$00CC
0000A4r 1  CF 00        	.word	$00CF
0000A6r 1  D2 00        	.word	$00D2
0000A8r 1  D4 00        	.word	$00D4
0000AAr 1  D7 00        	.word	$00D7
0000ACr 1  D9 00        	.word	$00D9
0000AEr 1  DB 00        	.word	$00DB
0000B0r 1  DE 00        	.word	$00DE
0000B2r 1  E0 00        	.word	$00E0
0000B4r 1  E2 00        	.word	$00E2
0000B6r 1  E4 00        	.word	$00E4
0000B8r 1  E6 00        	.word	$00E6
0000BAr 1  E8 00        	.word	$00E8
0000BCr 1  EA 00        	.word	$00EA
0000BEr 1  EC 00        	.word	$00EC
0000C0r 1  ED 00        	.word	$00ED
0000C2r 1  EF 00        	.word	$00EF
0000C4r 1  F1 00        	.word	$00F1
0000C6r 1  F2 00        	.word	$00F2
0000C8r 1  F3 00        	.word	$00F3
0000CAr 1  F5 00        	.word	$00F5
0000CCr 1  F6 00        	.word	$00F6
0000CEr 1  F7 00        	.word	$00F7
0000D0r 1  F8 00        	.word	$00F8
0000D2r 1  F9 00        	.word	$00F9
0000D4r 1  FA 00        	.word	$00FA
0000D6r 1  FB 00        	.word	$00FB
0000D8r 1  FC 00        	.word	$00FC
0000DAr 1  FD 00        	.word	$00FD
0000DCr 1  FE 00        	.word	$00FE
0000DEr 1  FE 00        	.word	$00FE
0000E0r 1  FF 00        	.word	$00FF
0000E2r 1  FF 00        	.word	$00FF
0000E4r 1  FF 00        	.word	$00FF
0000E6r 1  00 01        	.word	$0100
0000E8r 1  00 01        	.word	$0100
0000EAr 1  00 01        	.word	$0100
0000ECr 1  00 01        	.word	$0100
0000EEr 1               
0000EEr 1               .segment	"BSS"
000000r 1               
000000r 1               _proj_x:
000000r 1  00 00 00 00  	.res	16,$00
000004r 1  00 00 00 00  
000008r 1  00 00 00 00  
000010r 1               _proj_y:
000010r 1  00 00 00 00  	.res	16,$00
000014r 1  00 00 00 00  
000018r 1  00 00 00 00  
000020r 1               _proj_r:
000020r 1  00 00 00 00  	.res	16,$00
000024r 1  00 00 00 00  
000028r 1  00 00 00 00  
000030r 1               _back_buf:
000030r 1  00 00        	.res	2,$00
000032r 1               
000032r 1               ; ---------------------------------------------------------------
000032r 1               ; int __near__ sin_fp (int deg)
000032r 1               ; ---------------------------------------------------------------
000032r 1               
000032r 1               .segment	"CODE"
000000r 1               
000000r 1               .proc	_sin_fp: near
000000r 1               
000000r 1               .segment	"CODE"
000000r 1               
000000r 1               ;
000000r 1               ; {
000000r 1               ;
000000r 1  20 rr rr     	jsr     pushax
000003r 1               ;
000003r 1               ; if (deg <= 90)  return  sin_tab[deg];
000003r 1               ;
000003r 1  A0 01        	ldy     #$01
000005r 1  B1 rr        	lda     (c_sp),y
000007r 1  AA           	tax
000008r 1  B2 rr        	lda     (c_sp)
00000Ar 1  C9 5B        	cmp     #$5B
00000Cr 1  8A           	txa
00000Dr 1  E9 00        	sbc     #$00
00000Fr 1  50 02        	bvc     L0003
000011r 1  49 80        	eor     #$80
000013r 1  10 20        L0003:	bpl     L0002
000015r 1  A0 01        	ldy     #$01
000017r 1  B1 rr        	lda     (c_sp),y
000019r 1  85 rr        	sta     tmp1
00001Br 1  B2 rr        	lda     (c_sp)
00001Dr 1  0A           	asl     a
00001Er 1  26 rr        	rol     tmp1
000020r 1  18           	clc
000021r 1  69 rr        	adc     #<(_sin_tab)
000023r 1  85 rr        	sta     ptr1
000025r 1  A5 rr        	lda     tmp1
000027r 1  69 rr        	adc     #>(_sin_tab)
000029r 1  85 rr        	sta     ptr1+1
00002Br 1  A0 01        	ldy     #$01
00002Dr 1  B1 rr        	lda     (ptr1),y
00002Fr 1  AA           	tax
000030r 1  B2 rr        	lda     (ptr1)
000032r 1  4C rr rr     	jmp     incsp2
000035r 1               ;
000035r 1               ; if (deg <= 180) return  sin_tab[180 - deg];
000035r 1               ;
000035r 1  A0 01        L0002:	ldy     #$01
000037r 1  B1 rr        	lda     (c_sp),y
000039r 1  AA           	tax
00003Ar 1  B2 rr        	lda     (c_sp)
00003Cr 1  C9 B5        	cmp     #$B5
00003Er 1  8A           	txa
00003Fr 1  E9 00        	sbc     #$00
000041r 1  50 02        	bvc     L0005
000043r 1  49 80        	eor     #$80
000045r 1  10 26        L0005:	bpl     L0004
000047r 1  A2 00        	ldx     #$00
000049r 1  A9 B4        	lda     #$B4
00004Br 1  38           	sec
00004Cr 1  F2 rr        	sbc     (c_sp)
00004Er 1  48           	pha
00004Fr 1  8A           	txa
000050r 1  A0 01        	ldy     #$01
000052r 1  F1 rr        	sbc     (c_sp),y
000054r 1  85 rr        	sta     tmp1
000056r 1  68           	pla
000057r 1  0A           	asl     a
000058r 1  26 rr        	rol     tmp1
00005Ar 1  18           	clc
00005Br 1  69 rr        	adc     #<(_sin_tab)
00005Dr 1  85 rr        	sta     ptr1
00005Fr 1  A5 rr        	lda     tmp1
000061r 1  69 rr        	adc     #>(_sin_tab)
000063r 1  85 rr        	sta     ptr1+1
000065r 1  B1 rr        	lda     (ptr1),y
000067r 1  AA           	tax
000068r 1  B2 rr        	lda     (ptr1)
00006Ar 1  4C rr rr     	jmp     incsp2
00006Dr 1               ;
00006Dr 1               ; if (deg <= 270) return -sin_tab[deg - 180];
00006Dr 1               ;
00006Dr 1  A0 01        L0004:	ldy     #$01
00006Fr 1  B1 rr        	lda     (c_sp),y
000071r 1  AA           	tax
000072r 1  B2 rr        	lda     (c_sp)
000074r 1  C9 0F        	cmp     #$0F
000076r 1  8A           	txa
000077r 1  E9 01        	sbc     #$01
000079r 1  50 02        	bvc     L0007
00007Br 1  49 80        	eor     #$80
00007Dr 1  10 21        L0007:	bpl     L0006
00007Fr 1  A0 01        	ldy     #$01
000081r 1  B1 rr        	lda     (c_sp),y
000083r 1  AA           	tax
000084r 1  B2 rr        	lda     (c_sp)
000086r 1  38           	sec
000087r 1  E9 B4        	sbc     #$B4
000089r 1  B0 01        	bcs     L0008
00008Br 1  CA           	dex
00008Cr 1  86 rr        L0008:	stx     tmp1
00008Er 1  0A           	asl     a
00008Fr 1  26 rr        	rol     tmp1
000091r 1  18           	clc
000092r 1  69 rr        	adc     #<(_sin_tab)
000094r 1  85 rr        	sta     ptr1
000096r 1  A5 rr        	lda     tmp1
000098r 1  69 rr        	adc     #>(_sin_tab)
00009Ar 1  85 rr        	sta     ptr1+1
00009Cr 1  A0 01        	ldy     #$01
00009Er 1  80 1B        	bra     L000D
0000A0r 1               ;
0000A0r 1               ; return                 -sin_tab[360 - deg];
0000A0r 1               ;
0000A0r 1  A9 68        L0006:	lda     #$68
0000A2r 1  38           	sec
0000A3r 1  F2 rr        	sbc     (c_sp)
0000A5r 1  48           	pha
0000A6r 1  98           	tya
0000A7r 1  A8           	tay
0000A8r 1  F1 rr        	sbc     (c_sp),y
0000AAr 1  85 rr        	sta     tmp1
0000ACr 1  68           	pla
0000ADr 1  0A           	asl     a
0000AEr 1  26 rr        	rol     tmp1
0000B0r 1  18           	clc
0000B1r 1  69 rr        	adc     #<(_sin_tab)
0000B3r 1  85 rr        	sta     ptr1
0000B5r 1  A5 rr        	lda     tmp1
0000B7r 1  69 rr        	adc     #>(_sin_tab)
0000B9r 1  85 rr        	sta     ptr1+1
0000BBr 1  B1 rr        L000D:	lda     (ptr1),y
0000BDr 1  AA           	tax
0000BEr 1  B2 rr        	lda     (ptr1)
0000C0r 1  20 rr rr     	jsr     negax
0000C3r 1               ;
0000C3r 1               ; }
0000C3r 1               ;
0000C3r 1  4C rr rr     	jmp     incsp2
0000C6r 1               
0000C6r 1               .endproc
0000C6r 1               
0000C6r 1               ; ---------------------------------------------------------------
0000C6r 1               ; int __near__ cos_fp (int deg)
0000C6r 1               ; ---------------------------------------------------------------
0000C6r 1               
0000C6r 1               .segment	"CODE"
0000C6r 1               
0000C6r 1               .proc	_cos_fp: near
0000C6r 1               
0000C6r 1               .segment	"CODE"
0000C6r 1               
0000C6r 1               ;
0000C6r 1               ; {
0000C6r 1               ;
0000C6r 1  20 rr rr     	jsr     pushax
0000C9r 1               ;
0000C9r 1               ; deg += 90;
0000C9r 1               ;
0000C9r 1  A2 00        	ldx     #$00
0000CBr 1  A9 5A        	lda     #$5A
0000CDr 1  20 rr rr     	jsr     addeq0sp
0000D0r 1               ;
0000D0r 1               ; if (deg >= 360) deg -= 360;
0000D0r 1               ;
0000D0r 1  A0 01        	ldy     #$01
0000D2r 1  B1 rr        	lda     (c_sp),y
0000D4r 1  AA           	tax
0000D5r 1  B2 rr        	lda     (c_sp)
0000D7r 1  C9 68        	cmp     #$68
0000D9r 1  8A           	txa
0000DAr 1  E9 01        	sbc     #$01
0000DCr 1  70 02        	bvs     L0003
0000DEr 1  49 80        	eor     #$80
0000E0r 1  10 07        L0003:	bpl     L0002
0000E2r 1  A2 01        	ldx     #$01
0000E4r 1  A9 68        	lda     #$68
0000E6r 1  20 rr rr     	jsr     subeq0sp
0000E9r 1               ;
0000E9r 1               ; return sin_fp(deg);
0000E9r 1               ;
0000E9r 1  A0 01        L0002:	ldy     #$01
0000EBr 1  B1 rr        	lda     (c_sp),y
0000EDr 1  AA           	tax
0000EEr 1  B2 rr        	lda     (c_sp)
0000F0r 1  20 rr rr     	jsr     _sin_fp
0000F3r 1               ;
0000F3r 1               ; }
0000F3r 1               ;
0000F3r 1  4C rr rr     	jmp     incsp2
0000F6r 1               
0000F6r 1               .endproc
0000F6r 1               
0000F6r 1               ; ---------------------------------------------------------------
0000F6r 1               ; unsigned char __near__ key_down (unsigned char code)
0000F6r 1               ; ---------------------------------------------------------------
0000F6r 1               
0000F6r 1               .segment	"CODE"
0000F6r 1               
0000F6r 1               .proc	_key_down: near
0000F6r 1               
0000F6r 1               .segment	"CODE"
0000F6r 1               
0000F6r 1               ;
0000F6r 1               ; {
0000F6r 1               ;
0000F6r 1  20 rr rr     	jsr     pusha
0000F9r 1               ;
0000F9r 1               ; RIA.addr1 = KEYBOARD_ADDR + (unsigned)(code >> 3);
0000F9r 1               ;
0000F9r 1  B2 rr        	lda     (c_sp)
0000FBr 1  4A           	lsr     a
0000FCr 1  4A           	lsr     a
0000FDr 1  4A           	lsr     a
0000FEr 1  18           	clc
0000FFr 1  69 10        	adc     #$10
000101r 1  8D EA FF     	sta     $FFEA
000104r 1  A9 00        	lda     #$00
000106r 1  69 FF        	adc     #$FF
000108r 1  8D EB FF     	sta     $FFEA+1
00010Br 1               ;
00010Br 1               ; RIA.step1 = 0;
00010Br 1               ;
00010Br 1  9C E9 FF     	stz     $FFE9
00010Er 1               ;
00010Er 1               ; return (RIA.rw1 & (1u << (code & 7))) != 0;
00010Er 1               ;
00010Er 1  B2 rr        	lda     (c_sp)
000110r 1  29 07        	and     #$07
000112r 1  A8           	tay
000113r 1  A9 01        	lda     #$01
000115r 1  0A           L0003:	asl     a
000116r 1  88           	dey
000117r 1  10 FC        	bpl     L0003
000119r 1  6A           	ror     a
00011Ar 1  2D E8 FF     	and     $FFE8
00011Dr 1  48           	pha
00011Er 1  68           	pla
00011Fr 1  20 rr rr     	jsr     boolne
000122r 1               ;
000122r 1               ; }
000122r 1               ;
000122r 1  4C rr rr     	jmp     incsp1
000125r 1               
000125r 1               .endproc
000125r 1               
000125r 1               ; ---------------------------------------------------------------
000125r 1               ; unsigned char __near__ alt_f4_pressed (void)
000125r 1               ; ---------------------------------------------------------------
000125r 1               
000125r 1               .segment	"CODE"
000125r 1               
000125r 1               .proc	_alt_f4_pressed: near
000125r 1               
000125r 1               .segment	"CODE"
000125r 1               
000125r 1               ;
000125r 1               ; return key_down(KEY_F4)
000125r 1               ;
000125r 1  A9 3D        	lda     #$3D
000127r 1               ;
000127r 1               ; && (key_down(KEY_LEFT_ALT) || key_down(KEY_RIGHT_ALT));
000127r 1               ;
000127r 1  20 rr rr     	jsr     _key_down
00012Ar 1  AA           	tax
00012Br 1  F0 15        	beq     L000A
00012Dr 1  A9 E2        	lda     #$E2
00012Fr 1  20 rr rr     	jsr     _key_down
000132r 1  AA           	tax
000133r 1  D0 08        	bne     L0003
000135r 1  A9 E6        	lda     #$E6
000137r 1  20 rr rr     	jsr     _key_down
00013Ar 1  AA           	tax
00013Br 1  F0 05        	beq     L000A
00013Dr 1  A2 00        L0003:	ldx     #$00
00013Fr 1  A9 01        	lda     #$01
000141r 1  60           	rts
000142r 1               ;
000142r 1               ; }
000142r 1               ;
000142r 1  60           L000A:	rts
000143r 1               
000143r 1               .endproc
000143r 1               
000143r 1               ; ---------------------------------------------------------------
000143r 1               ; void __near__ set_pixel (int x, int y)
000143r 1               ; ---------------------------------------------------------------
000143r 1               
000143r 1               .segment	"CODE"
000143r 1               
000143r 1               .proc	_set_pixel: near
000143r 1               
000143r 1               .segment	"CODE"
000143r 1               
000143r 1               ;
000143r 1               ; {
000143r 1               ;
000143r 1  20 rr rr     	jsr     pushax
000146r 1               ;
000146r 1               ; if ((unsigned)x >= (unsigned)FB_WIDTH || (unsigned)y >= (unsigned)FB_HEIGHT)
000146r 1               ;
000146r 1  20 rr rr     	jsr     decsp2
000149r 1  A0 05        	ldy     #$05
00014Br 1  B1 rr        	lda     (c_sp),y
00014Dr 1  AA           	tax
00014Er 1  88           	dey
00014Fr 1  B1 rr        	lda     (c_sp),y
000151r 1  C9 80        	cmp     #$80
000153r 1  8A           	txa
000154r 1  E9 02        	sbc     #$02
000156r 1  B0 78        	bcs     L0001
000158r 1  88           	dey
000159r 1  B1 rr        	lda     (c_sp),y
00015Br 1  AA           	tax
00015Cr 1  88           	dey
00015Dr 1  B1 rr        	lda     (c_sp),y
00015Fr 1  C9 68        	cmp     #$68
000161r 1  8A           	txa
000162r 1  E9 01        	sbc     #$01
000164r 1  B0 6A        	bcs     L0001
000166r 1               ;
000166r 1               ; + (((unsigned)y << 6) + ((unsigned)y << 4))
000166r 1               ;
000166r 1  C8           	iny
000167r 1  B1 rr        	lda     (c_sp),y
000169r 1  AA           	tax
00016Ar 1  88           	dey
00016Br 1  B1 rr        	lda     (c_sp),y
00016Dr 1  20 rr rr     	jsr     shlax4
000170r 1  20 rr rr     	jsr     shlax2
000173r 1  85 rr        	sta     ptr1
000175r 1  86 rr        	stx     ptr1+1
000177r 1  C8           	iny
000178r 1  B1 rr        	lda     (c_sp),y
00017Ar 1  AA           	tax
00017Br 1  88           	dey
00017Cr 1  B1 rr        	lda     (c_sp),y
00017Er 1  20 rr rr     	jsr     shlax4
000181r 1  18           	clc
000182r 1  65 rr        	adc     ptr1
000184r 1  48           	pha
000185r 1  8A           	txa
000186r 1  65 rr        	adc     ptr1+1
000188r 1  AA           	tax
000189r 1  68           	pla
00018Ar 1               ;
00018Ar 1               ; + ((unsigned)x >> 3);
00018Ar 1               ;
00018Ar 1  18           	clc
00018Br 1  6D rr rr     	adc     _back_buf
00018Er 1  85 rr        	sta     ptr1
000190r 1  8A           	txa
000191r 1  6D rr rr     	adc     _back_buf+1
000194r 1  85 rr        	sta     ptr1+1
000196r 1  A0 05        	ldy     #$05
000198r 1  B1 rr        	lda     (c_sp),y
00019Ar 1  AA           	tax
00019Br 1  88           	dey
00019Cr 1  B1 rr        	lda     (c_sp),y
00019Er 1  20 rr rr     	jsr     shrax3
0001A1r 1  18           	clc
0001A2r 1  65 rr        	adc     ptr1
0001A4r 1  48           	pha
0001A5r 1  8A           	txa
0001A6r 1  65 rr        	adc     ptr1+1
0001A8r 1  AA           	tax
0001A9r 1  68           	pla
0001AAr 1  20 rr rr     	jsr     stax0sp
0001ADr 1               ;
0001ADr 1               ; RIA.addr0 = addr;
0001ADr 1               ;
0001ADr 1  8D E6 FF     	sta     $FFE6
0001B0r 1  8E E7 FF     	stx     $FFE6+1
0001B3r 1               ;
0001B3r 1               ; RIA.rw0 = RIA.rw0 | bitmask[x & 7];  /* read-modify-write */
0001B3r 1               ;
0001B3r 1  AD E4 FF     	lda     $FFE4
0001B6r 1  20 rr rr     	jsr     pusha0
0001B9r 1  A0 06        	ldy     #$06
0001BBr 1  B1 rr        	lda     (c_sp),y
0001BDr 1  29 07        	and     #$07
0001BFr 1  85 rr        	sta     ptr1
0001C1r 1  18           	clc
0001C2r 1  A9 rr        	lda     #>(_bitmask)
0001C4r 1  85 rr        	sta     ptr1+1
0001C6r 1  A0 rr        	ldy     #<(_bitmask)
0001C8r 1  B1 rr        	lda     (ptr1),y
0001CAr 1  20 rr rr     	jsr     tosora0
0001CDr 1  8D E4 FF     	sta     $FFE4
0001D0r 1               ;
0001D0r 1               ; }
0001D0r 1               ;
0001D0r 1  4C rr rr     L0001:	jmp     incsp6
0001D3r 1               
0001D3r 1               .endproc
0001D3r 1               
0001D3r 1               ; ---------------------------------------------------------------
0001D3r 1               ; void __near__ draw_line (int x0, int y0, int x1, int y1)
0001D3r 1               ; ---------------------------------------------------------------
0001D3r 1               
0001D3r 1               .segment	"CODE"
0001D3r 1               
0001D3r 1               .proc	_draw_line: near
0001D3r 1               
0001D3r 1               .segment	"CODE"
0001D3r 1               
0001D3r 1               ;
0001D3r 1               ; {
0001D3r 1               ;
0001D3r 1  20 rr rr     	jsr     pushax
0001D6r 1               ;
0001D6r 1               ; dx  = x1 - x0;  dy  = y1 - y0;
0001D6r 1               ;
0001D6r 1  A0 0E        	ldy     #$0E
0001D8r 1  20 rr rr     	jsr     subysp
0001DBr 1  A0 11        	ldy     #$11
0001DDr 1  B1 rr        	lda     (c_sp),y
0001DFr 1  AA           	tax
0001E0r 1  88           	dey
0001E1r 1  B1 rr        	lda     (c_sp),y
0001E3r 1  38           	sec
0001E4r 1  A0 14        	ldy     #$14
0001E6r 1  F1 rr        	sbc     (c_sp),y
0001E8r 1  48           	pha
0001E9r 1  8A           	txa
0001EAr 1  C8           	iny
0001EBr 1  F1 rr        	sbc     (c_sp),y
0001EDr 1  AA           	tax
0001EEr 1  68           	pla
0001EFr 1  A0 0C        	ldy     #$0C
0001F1r 1  20 rr rr     	jsr     staxysp
0001F4r 1  A0 0F        	ldy     #$0F
0001F6r 1  B1 rr        	lda     (c_sp),y
0001F8r 1  AA           	tax
0001F9r 1  88           	dey
0001FAr 1  B1 rr        	lda     (c_sp),y
0001FCr 1  38           	sec
0001FDr 1  A0 12        	ldy     #$12
0001FFr 1  F1 rr        	sbc     (c_sp),y
000201r 1  48           	pha
000202r 1  8A           	txa
000203r 1  C8           	iny
000204r 1  F1 rr        	sbc     (c_sp),y
000206r 1  AA           	tax
000207r 1  68           	pla
000208r 1  A0 0A        	ldy     #$0A
00020Ar 1  20 rr rr     	jsr     staxysp
00020Dr 1               ;
00020Dr 1               ; adx = dx < 0 ? -dx : dx;
00020Dr 1               ;
00020Dr 1  A0 0D        	ldy     #$0D
00020Fr 1  B1 rr        	lda     (c_sp),y
000211r 1  AA           	tax
000212r 1  E0 80        	cpx     #$80
000214r 1  90 0D        	bcc     L0002
000216r 1  A0 0D        	ldy     #$0D
000218r 1  B1 rr        	lda     (c_sp),y
00021Ar 1  AA           	tax
00021Br 1  88           	dey
00021Cr 1  B1 rr        	lda     (c_sp),y
00021Er 1  20 rr rr     	jsr     negax
000221r 1  80 08        	bra     L0003
000223r 1  A0 0D        L0002:	ldy     #$0D
000225r 1  B1 rr        	lda     (c_sp),y
000227r 1  AA           	tax
000228r 1  88           	dey
000229r 1  B1 rr        	lda     (c_sp),y
00022Br 1  A0 08        L0003:	ldy     #$08
00022Dr 1  20 rr rr     	jsr     staxysp
000230r 1               ;
000230r 1               ; ady = dy < 0 ? -dy : dy;
000230r 1               ;
000230r 1  A0 0B        	ldy     #$0B
000232r 1  B1 rr        	lda     (c_sp),y
000234r 1  AA           	tax
000235r 1  E0 80        	cpx     #$80
000237r 1  90 0D        	bcc     L0004
000239r 1  A0 0B        	ldy     #$0B
00023Br 1  B1 rr        	lda     (c_sp),y
00023Dr 1  AA           	tax
00023Er 1  88           	dey
00023Fr 1  B1 rr        	lda     (c_sp),y
000241r 1  20 rr rr     	jsr     negax
000244r 1  80 08        	bra     L0005
000246r 1  A0 0B        L0004:	ldy     #$0B
000248r 1  B1 rr        	lda     (c_sp),y
00024Ar 1  AA           	tax
00024Br 1  88           	dey
00024Cr 1  B1 rr        	lda     (c_sp),y
00024Er 1  A0 06        L0005:	ldy     #$06
000250r 1  20 rr rr     	jsr     staxysp
000253r 1               ;
000253r 1               ; sx  = dx < 0 ? -1 : 1;
000253r 1               ;
000253r 1  A0 0D        	ldy     #$0D
000255r 1  B1 rr        	lda     (c_sp),y
000257r 1  AA           	tax
000258r 1  E0 80        	cpx     #$80
00025Ar 1  A2 00        	ldx     #$00
00025Cr 1  90 04        	bcc     L0017
00025Er 1  CA           	dex
00025Fr 1  8A           	txa
000260r 1  80 02        	bra     L0007
000262r 1  A9 01        L0017:	lda     #$01
000264r 1  A0 04        L0007:	ldy     #$04
000266r 1  20 rr rr     	jsr     staxysp
000269r 1               ;
000269r 1               ; sy  = dy < 0 ? -1 : 1;
000269r 1               ;
000269r 1  A0 0B        	ldy     #$0B
00026Br 1  B1 rr        	lda     (c_sp),y
00026Dr 1  AA           	tax
00026Er 1  E0 80        	cpx     #$80
000270r 1  A2 00        	ldx     #$00
000272r 1  90 04        	bcc     L0018
000274r 1  CA           	dex
000275r 1  8A           	txa
000276r 1  80 02        	bra     L0009
000278r 1  A9 01        L0018:	lda     #$01
00027Ar 1  A0 02        L0009:	ldy     #$02
00027Cr 1  20 rr rr     	jsr     staxysp
00027Fr 1               ;
00027Fr 1               ; set_pixel(x0, y0);
00027Fr 1               ;
00027Fr 1  A0 17        	ldy     #$17
000281r 1  20 rr rr     	jsr     pushwysp
000284r 1  A0 15        	ldy     #$15
000286r 1  B1 rr        	lda     (c_sp),y
000288r 1  AA           	tax
000289r 1  88           	dey
00028Ar 1  B1 rr        	lda     (c_sp),y
00028Cr 1  20 rr rr     	jsr     _set_pixel
00028Fr 1               ;
00028Fr 1               ; if (adx >= ady)
00028Fr 1               ;
00028Fr 1  A0 09        	ldy     #$09
000291r 1  B1 rr        	lda     (c_sp),y
000293r 1  AA           	tax
000294r 1  88           	dey
000295r 1  B1 rr        	lda     (c_sp),y
000297r 1  A0 06        	ldy     #$06
000299r 1  D1 rr        	cmp     (c_sp),y
00029Br 1  8A           	txa
00029Cr 1  C8           	iny
00029Dr 1  F1 rr        	sbc     (c_sp),y
00029Fr 1  70 02        	bvs     L0014
0002A1r 1  49 80        	eor     #$80
0002A3r 1  30 03 4C rr  L0014:	jpl     L0019
0002A7r 1  rr           
0002A8r 1               ;
0002A8r 1               ; err = adx >> 1;
0002A8r 1               ;
0002A8r 1  A0 09        	ldy     #$09
0002AAr 1  B1 rr        	lda     (c_sp),y
0002ACr 1  AA           	tax
0002ADr 1  88           	dey
0002AEr 1  B1 rr        	lda     (c_sp),y
0002B0r 1  20 rr rr     	jsr     asrax1
0002B3r 1  20 rr rr     	jsr     stax0sp
0002B6r 1               ;
0002B6r 1               ; while (x0 != x1)
0002B6r 1               ;
0002B6r 1  80 5F        	bra     L000D
0002B8r 1               ;
0002B8r 1               ; err -= ady;
0002B8r 1               ;
0002B8r 1  A0 07        L000B:	ldy     #$07
0002BAr 1  B1 rr        	lda     (c_sp),y
0002BCr 1  AA           	tax
0002BDr 1  88           	dey
0002BEr 1  B1 rr        	lda     (c_sp),y
0002C0r 1  20 rr rr     	jsr     subeq0sp
0002C3r 1               ;
0002C3r 1               ; if (err < 0) { y0 += sy; err += adx; }
0002C3r 1               ;
0002C3r 1  A0 01        	ldy     #$01
0002C5r 1  B1 rr        	lda     (c_sp),y
0002C7r 1  AA           	tax
0002C8r 1  E0 80        	cpx     #$80
0002CAr 1  90 26        	bcc     L000E
0002CCr 1  C8           	iny
0002CDr 1  B1 rr        	lda     (c_sp),y
0002CFr 1  A0 12        	ldy     #$12
0002D1r 1  18           	clc
0002D2r 1  71 rr        	adc     (c_sp),y
0002D4r 1  91 rr        	sta     (c_sp),y
0002D6r 1  A0 03        	ldy     #$03
0002D8r 1  B1 rr        	lda     (c_sp),y
0002DAr 1  A0 13        	ldy     #$13
0002DCr 1  71 rr        	adc     (c_sp),y
0002DEr 1  91 rr        	sta     (c_sp),y
0002E0r 1  A0 08        	ldy     #$08
0002E2r 1  B1 rr        	lda     (c_sp),y
0002E4r 1  18           	clc
0002E5r 1  72 rr        	adc     (c_sp)
0002E7r 1  92 rr        	sta     (c_sp)
0002E9r 1  C8           	iny
0002EAr 1  B1 rr        	lda     (c_sp),y
0002ECr 1  A0 01        	ldy     #$01
0002EEr 1  71 rr        	adc     (c_sp),y
0002F0r 1  91 rr        	sta     (c_sp),y
0002F2r 1               ;
0002F2r 1               ; x0 += sx;
0002F2r 1               ;
0002F2r 1  A0 04        L000E:	ldy     #$04
0002F4r 1  B1 rr        	lda     (c_sp),y
0002F6r 1  A0 14        	ldy     #$14
0002F8r 1  18           	clc
0002F9r 1  71 rr        	adc     (c_sp),y
0002FBr 1  91 rr        	sta     (c_sp),y
0002FDr 1  A0 05        	ldy     #$05
0002FFr 1  B1 rr        	lda     (c_sp),y
000301r 1  A0 15        	ldy     #$15
000303r 1  71 rr        	adc     (c_sp),y
000305r 1  91 rr        	sta     (c_sp),y
000307r 1               ;
000307r 1               ; set_pixel(x0, y0);
000307r 1               ;
000307r 1  A0 17        	ldy     #$17
000309r 1  20 rr rr     	jsr     pushwysp
00030Cr 1  A0 15        	ldy     #$15
00030Er 1  B1 rr        	lda     (c_sp),y
000310r 1  AA           	tax
000311r 1  88           	dey
000312r 1  B1 rr        	lda     (c_sp),y
000314r 1  20 rr rr     	jsr     _set_pixel
000317r 1               ;
000317r 1               ; while (x0 != x1)
000317r 1               ;
000317r 1  A0 15        L000D:	ldy     #$15
000319r 1  B1 rr        	lda     (c_sp),y
00031Br 1  AA           	tax
00031Cr 1  88           	dey
00031Dr 1  B1 rr        	lda     (c_sp),y
00031Fr 1  A0 10        	ldy     #$10
000321r 1  D1 rr        	cmp     (c_sp),y
000323r 1  D0 93        	bne     L000B
000325r 1  8A           	txa
000326r 1  C8           	iny
000327r 1  D1 rr        	cmp     (c_sp),y
000329r 1  D0 8D        	bne     L000B
00032Br 1               ;
00032Br 1               ; else
00032Br 1               ;
00032Br 1  4C rr rr     	jmp     L0011
00032Er 1               ;
00032Er 1               ; err = ady >> 1;
00032Er 1               ;
00032Er 1  B1 rr        L0019:	lda     (c_sp),y
000330r 1  AA           	tax
000331r 1  88           	dey
000332r 1  B1 rr        	lda     (c_sp),y
000334r 1  20 rr rr     	jsr     asrax1
000337r 1  20 rr rr     	jsr     stax0sp
00033Ar 1               ;
00033Ar 1               ; while (y0 != y1)
00033Ar 1               ;
00033Ar 1  80 5F        	bra     L0012
00033Cr 1               ;
00033Cr 1               ; err -= adx;
00033Cr 1               ;
00033Cr 1  A0 09        L0010:	ldy     #$09
00033Er 1  B1 rr        	lda     (c_sp),y
000340r 1  AA           	tax
000341r 1  88           	dey
000342r 1  B1 rr        	lda     (c_sp),y
000344r 1  20 rr rr     	jsr     subeq0sp
000347r 1               ;
000347r 1               ; if (err < 0) { x0 += sx; err += ady; }
000347r 1               ;
000347r 1  A0 01        	ldy     #$01
000349r 1  B1 rr        	lda     (c_sp),y
00034Br 1  AA           	tax
00034Cr 1  E0 80        	cpx     #$80
00034Er 1  90 27        	bcc     L0013
000350r 1  A0 04        	ldy     #$04
000352r 1  B1 rr        	lda     (c_sp),y
000354r 1  A0 14        	ldy     #$14
000356r 1  18           	clc
000357r 1  71 rr        	adc     (c_sp),y
000359r 1  91 rr        	sta     (c_sp),y
00035Br 1  A0 05        	ldy     #$05
00035Dr 1  B1 rr        	lda     (c_sp),y
00035Fr 1  A0 15        	ldy     #$15
000361r 1  71 rr        	adc     (c_sp),y
000363r 1  91 rr        	sta     (c_sp),y
000365r 1  A0 06        	ldy     #$06
000367r 1  B1 rr        	lda     (c_sp),y
000369r 1  18           	clc
00036Ar 1  72 rr        	adc     (c_sp)
00036Cr 1  92 rr        	sta     (c_sp)
00036Er 1  C8           	iny
00036Fr 1  B1 rr        	lda     (c_sp),y
000371r 1  A0 01        	ldy     #$01
000373r 1  71 rr        	adc     (c_sp),y
000375r 1  91 rr        	sta     (c_sp),y
000377r 1               ;
000377r 1               ; y0 += sy;
000377r 1               ;
000377r 1  C8           L0013:	iny
000378r 1  B1 rr        	lda     (c_sp),y
00037Ar 1  A0 12        	ldy     #$12
00037Cr 1  18           	clc
00037Dr 1  71 rr        	adc     (c_sp),y
00037Fr 1  91 rr        	sta     (c_sp),y
000381r 1  A0 03        	ldy     #$03
000383r 1  B1 rr        	lda     (c_sp),y
000385r 1  A0 13        	ldy     #$13
000387r 1  71 rr        	adc     (c_sp),y
000389r 1  91 rr        	sta     (c_sp),y
00038Br 1               ;
00038Br 1               ; set_pixel(x0, y0);
00038Br 1               ;
00038Br 1  A0 17        	ldy     #$17
00038Dr 1  20 rr rr     	jsr     pushwysp
000390r 1  A0 15        	ldy     #$15
000392r 1  B1 rr        	lda     (c_sp),y
000394r 1  AA           	tax
000395r 1  88           	dey
000396r 1  B1 rr        	lda     (c_sp),y
000398r 1  20 rr rr     	jsr     _set_pixel
00039Br 1               ;
00039Br 1               ; while (y0 != y1)
00039Br 1               ;
00039Br 1  A0 13        L0012:	ldy     #$13
00039Dr 1  B1 rr        	lda     (c_sp),y
00039Fr 1  AA           	tax
0003A0r 1  88           	dey
0003A1r 1  B1 rr        	lda     (c_sp),y
0003A3r 1  A0 0E        	ldy     #$0E
0003A5r 1  D1 rr        	cmp     (c_sp),y
0003A7r 1  D0 93        	bne     L0010
0003A9r 1  8A           	txa
0003AAr 1  C8           	iny
0003ABr 1  D1 rr        	cmp     (c_sp),y
0003ADr 1  D0 8D        	bne     L0010
0003AFr 1               ;
0003AFr 1               ; }
0003AFr 1               ;
0003AFr 1  A0 16        L0011:	ldy     #$16
0003B1r 1  4C rr rr     	jmp     addysp
0003B4r 1               
0003B4r 1               .endproc
0003B4r 1               
0003B4r 1               ; ---------------------------------------------------------------
0003B4r 1               ; void __near__ clear_fb (void)
0003B4r 1               ; ---------------------------------------------------------------
0003B4r 1               
0003B4r 1               .segment	"CODE"
0003B4r 1               
0003B4r 1               .proc	_clear_fb: near
0003B4r 1               
0003B4r 1               .segment	"CODE"
0003B4r 1               
0003B4r 1               ;
0003B4r 1               ; RIA.addr0 = back_buf;
0003B4r 1               ;
0003B4r 1  20 rr rr     	jsr     decsp2
0003B7r 1  AD rr rr     	lda     _back_buf+1
0003BAr 1  8D E7 FF     	sta     $FFE6+1
0003BDr 1  AD rr rr     	lda     _back_buf
0003C0r 1  8D E6 FF     	sta     $FFE6
0003C3r 1               ;
0003C3r 1               ; RIA.step0 = 1;
0003C3r 1               ;
0003C3r 1  A9 01        	lda     #$01
0003C5r 1  8D E5 FF     	sta     $FFE5
0003C8r 1               ;
0003C8r 1               ; for (i = 0; i < FB_SIZE / 8u; i++)
0003C8r 1               ;
0003C8r 1  3A           	dea
0003C9r 1  92 rr        	sta     (c_sp)
0003CBr 1  A0 01        	ldy     #$01
0003CDr 1  91 rr        	sta     (c_sp),y
0003CFr 1  A0 01        L0002:	ldy     #$01
0003D1r 1  B1 rr        	lda     (c_sp),y
0003D3r 1  C9 0E        	cmp     #$0E
0003D5r 1  D0 04        	bne     L0006
0003D7r 1  B2 rr        	lda     (c_sp)
0003D9r 1  C9 10        	cmp     #$10
0003DBr 1  B0 20        L0006:	bcs     L0003
0003DDr 1               ;
0003DDr 1               ; RIA.rw0 = 0; RIA.rw0 = 0; RIA.rw0 = 0; RIA.rw0 = 0;
0003DDr 1               ;
0003DDr 1  9C E4 FF     	stz     $FFE4
0003E0r 1  9C E4 FF     	stz     $FFE4
0003E3r 1  9C E4 FF     	stz     $FFE4
0003E6r 1  9C E4 FF     	stz     $FFE4
0003E9r 1               ;
0003E9r 1               ; RIA.rw0 = 0; RIA.rw0 = 0; RIA.rw0 = 0; RIA.rw0 = 0;
0003E9r 1               ;
0003E9r 1  9C E4 FF     	stz     $FFE4
0003ECr 1  9C E4 FF     	stz     $FFE4
0003EFr 1  9C E4 FF     	stz     $FFE4
0003F2r 1  9C E4 FF     	stz     $FFE4
0003F5r 1               ;
0003F5r 1               ; for (i = 0; i < FB_SIZE / 8u; i++)
0003F5r 1               ;
0003F5r 1  A2 00        	ldx     #$00
0003F7r 1  98           	tya
0003F8r 1  20 rr rr     	jsr     addeq0sp
0003FBr 1  80 D2        	bra     L0002
0003FDr 1               ;
0003FDr 1               ; }
0003FDr 1               ;
0003FDr 1  4C rr rr     L0003:	jmp     incsp2
000400r 1               
000400r 1               .endproc
000400r 1               
000400r 1               ; ---------------------------------------------------------------
000400r 1               ; void __near__ project_vertices (int angle)
000400r 1               ; ---------------------------------------------------------------
000400r 1               
000400r 1               .segment	"CODE"
000400r 1               
000400r 1               .proc	_project_vertices: near
000400r 1               
000400r 1               .segment	"CODE"
000400r 1               
000400r 1               ;
000400r 1               ; {
000400r 1               ;
000400r 1  20 rr rr     	jsr     pushax
000403r 1               ;
000403r 1               ; sin_a = sin_fp(angle);
000403r 1               ;
000403r 1  A0 16        	ldy     #$16
000405r 1  20 rr rr     	jsr     subysp
000408r 1  A0 17        	ldy     #$17
00040Ar 1  B1 rr        	lda     (c_sp),y
00040Cr 1  AA           	tax
00040Dr 1  88           	dey
00040Er 1  B1 rr        	lda     (c_sp),y
000410r 1  20 rr rr     	jsr     _sin_fp
000413r 1  A0 14        	ldy     #$14
000415r 1  20 rr rr     	jsr     staxysp
000418r 1               ;
000418r 1               ; cos_a = cos_fp(angle);
000418r 1               ;
000418r 1  A0 17        	ldy     #$17
00041Ar 1  B1 rr        	lda     (c_sp),y
00041Cr 1  AA           	tax
00041Dr 1  88           	dey
00041Er 1  B1 rr        	lda     (c_sp),y
000420r 1  20 rr rr     	jsr     _cos_fp
000423r 1  A0 12        	ldy     #$12
000425r 1  20 rr rr     	jsr     staxysp
000428r 1               ;
000428r 1               ; for (i = 0; i < 8; i++)
000428r 1               ;
000428r 1  A9 00        	lda     #$00
00042Ar 1  92 rr        	sta     (c_sp)
00042Cr 1  A0 01        	ldy     #$01
00042Er 1  91 rr        	sta     (c_sp),y
000430r 1  A0 01        L0002:	ldy     #$01
000432r 1  B1 rr        	lda     (c_sp),y
000434r 1  AA           	tax
000435r 1  B2 rr        	lda     (c_sp)
000437r 1  C9 08        	cmp     #$08
000439r 1  8A           	txa
00043Ar 1  E9 00        	sbc     #$00
00043Cr 1  50 02        	bvc     L0006
00043Er 1  49 80        	eor     #$80
000440r 1  30 03 4C rr  L0006:	jpl     L0003
000444r 1  rr           
000445r 1               ;
000445r 1               ; x = (int)verts[i][0];
000445r 1               ;
000445r 1  A0 01        	ldy     #$01
000447r 1  B1 rr        	lda     (c_sp),y
000449r 1  AA           	tax
00044Ar 1  B2 rr        	lda     (c_sp)
00044Cr 1  20 rr rr     	jsr     mulax3
00044Fr 1  18           	clc
000450r 1  69 rr        	adc     #<(_verts)
000452r 1  A8           	tay
000453r 1  8A           	txa
000454r 1  69 rr        	adc     #>(_verts)
000456r 1  AA           	tax
000457r 1  98           	tya
000458r 1  A0 00        	ldy     #$00
00045Ar 1  20 rr rr     	jsr     ldaidx
00045Dr 1  A0 10        	ldy     #$10
00045Fr 1  20 rr rr     	jsr     staxysp
000462r 1               ;
000462r 1               ; y = (int)verts[i][1];
000462r 1               ;
000462r 1  A0 01        	ldy     #$01
000464r 1  B1 rr        	lda     (c_sp),y
000466r 1  AA           	tax
000467r 1  B2 rr        	lda     (c_sp)
000469r 1  20 rr rr     	jsr     mulax3
00046Cr 1  18           	clc
00046Dr 1  69 rr        	adc     #<(_verts)
00046Fr 1  A8           	tay
000470r 1  8A           	txa
000471r 1  69 rr        	adc     #>(_verts)
000473r 1  AA           	tax
000474r 1  98           	tya
000475r 1  1A           	ina
000476r 1  D0 01        	bne     L0007
000478r 1  E8           	inx
000479r 1  A0 00        L0007:	ldy     #$00
00047Br 1  20 rr rr     	jsr     ldaidx
00047Er 1  A0 0E        	ldy     #$0E
000480r 1  20 rr rr     	jsr     staxysp
000483r 1               ;
000483r 1               ; z = (int)verts[i][2];
000483r 1               ;
000483r 1  A0 01        	ldy     #$01
000485r 1  B1 rr        	lda     (c_sp),y
000487r 1  AA           	tax
000488r 1  B2 rr        	lda     (c_sp)
00048Ar 1  20 rr rr     	jsr     mulax3
00048Dr 1  18           	clc
00048Er 1  69 rr        	adc     #<(_verts)
000490r 1  A8           	tay
000491r 1  8A           	txa
000492r 1  69 rr        	adc     #>(_verts)
000494r 1  AA           	tax
000495r 1  98           	tya
000496r 1  18           	clc
000497r 1  69 02        	adc     #$02
000499r 1  90 01        	bcc     L0008
00049Br 1  E8           	inx
00049Cr 1  A0 00        L0008:	ldy     #$00
00049Er 1  20 rr rr     	jsr     ldaidx
0004A1r 1  A0 0C        	ldy     #$0C
0004A3r 1  20 rr rr     	jsr     staxysp
0004A6r 1               ;
0004A6r 1               ; rx = (x * cos_a + z * sin_a) >> 8;
0004A6r 1               ;
0004A6r 1  A0 13        	ldy     #$13
0004A8r 1  20 rr rr     	jsr     pushwysp
0004ABr 1  A0 15        	ldy     #$15
0004ADr 1  B1 rr        	lda     (c_sp),y
0004AFr 1  AA           	tax
0004B0r 1  88           	dey
0004B1r 1  B1 rr        	lda     (c_sp),y
0004B3r 1  20 rr rr     	jsr     tosmulax
0004B6r 1  20 rr rr     	jsr     pushax
0004B9r 1  A0 11        	ldy     #$11
0004BBr 1  20 rr rr     	jsr     pushwysp
0004BEr 1  A0 19        	ldy     #$19
0004C0r 1  B1 rr        	lda     (c_sp),y
0004C2r 1  AA           	tax
0004C3r 1  88           	dey
0004C4r 1  B1 rr        	lda     (c_sp),y
0004C6r 1  20 rr rr     	jsr     tosmulax
0004C9r 1  20 rr rr     	jsr     tosaddax
0004CCr 1  8A           	txa
0004CDr 1  E0 80        	cpx     #$80
0004CFr 1  A2 00        	ldx     #$00
0004D1r 1  90 01        	bcc     L0009
0004D3r 1  CA           	dex
0004D4r 1  A0 0A        L0009:	ldy     #$0A
0004D6r 1  20 rr rr     	jsr     staxysp
0004D9r 1               ;
0004D9r 1               ; rz = (z * cos_a - x * sin_a) >> 8;
0004D9r 1               ;
0004D9r 1  A0 0F        	ldy     #$0F
0004DBr 1  20 rr rr     	jsr     pushwysp
0004DEr 1  A0 15        	ldy     #$15
0004E0r 1  B1 rr        	lda     (c_sp),y
0004E2r 1  AA           	tax
0004E3r 1  88           	dey
0004E4r 1  B1 rr        	lda     (c_sp),y
0004E6r 1  20 rr rr     	jsr     tosmulax
0004E9r 1  20 rr rr     	jsr     pushax
0004ECr 1  A0 15        	ldy     #$15
0004EEr 1  20 rr rr     	jsr     pushwysp
0004F1r 1  A0 19        	ldy     #$19
0004F3r 1  B1 rr        	lda     (c_sp),y
0004F5r 1  AA           	tax
0004F6r 1  88           	dey
0004F7r 1  B1 rr        	lda     (c_sp),y
0004F9r 1  20 rr rr     	jsr     tosmulax
0004FCr 1  20 rr rr     	jsr     tossubax
0004FFr 1  8A           	txa
000500r 1  E0 80        	cpx     #$80
000502r 1  A2 00        	ldx     #$00
000504r 1  90 01        	bcc     L000A
000506r 1  CA           	dex
000507r 1  A0 08        L000A:	ldy     #$08
000509r 1  20 rr rr     	jsr     staxysp
00050Cr 1               ;
00050Cr 1               ; sy = (y * COS30_FP - rz * SIN30_FP) >> 8;
00050Cr 1               ;
00050Cr 1  A0 11        	ldy     #$11
00050Er 1  20 rr rr     	jsr     pushwysp
000511r 1  A9 DE        	lda     #$DE
000513r 1  20 rr rr     	jsr     tosmula0
000516r 1  20 rr rr     	jsr     pushax
000519r 1  A0 0B        	ldy     #$0B
00051Br 1  B1 rr        	lda     (c_sp),y
00051Dr 1  AA           	tax
00051Er 1  88           	dey
00051Fr 1  B1 rr        	lda     (c_sp),y
000521r 1  20 rr rr     	jsr     aslax7
000524r 1  20 rr rr     	jsr     tossubax
000527r 1  8A           	txa
000528r 1  E0 80        	cpx     #$80
00052Ar 1  A2 00        	ldx     #$00
00052Cr 1  90 01        	bcc     L000B
00052Er 1  CA           	dex
00052Fr 1  A0 06        L000B:	ldy     #$06
000531r 1  20 rr rr     	jsr     staxysp
000534r 1               ;
000534r 1               ; sz = (y * SIN30_FP + rz * COS30_FP) >> 8;
000534r 1               ;
000534r 1  A0 0F        	ldy     #$0F
000536r 1  B1 rr        	lda     (c_sp),y
000538r 1  AA           	tax
000539r 1  88           	dey
00053Ar 1  B1 rr        	lda     (c_sp),y
00053Cr 1  20 rr rr     	jsr     aslax7
00053Fr 1  20 rr rr     	jsr     pushax
000542r 1  A0 0D        	ldy     #$0D
000544r 1  20 rr rr     	jsr     pushwysp
000547r 1  A9 DE        	lda     #$DE
000549r 1  20 rr rr     	jsr     tosmula0
00054Cr 1  20 rr rr     	jsr     tosaddax
00054Fr 1  8A           	txa
000550r 1  E0 80        	cpx     #$80
000552r 1  A2 00        	ldx     #$00
000554r 1  90 01        	bcc     L000C
000556r 1  CA           	dex
000557r 1  A0 04        L000C:	ldy     #$04
000559r 1  20 rr rr     	jsr     staxysp
00055Cr 1               ;
00055Cr 1               ; denom = PERSP_D - sz;
00055Cr 1               ;
00055Cr 1  A9 C8        	lda     #$C8
00055Er 1  38           	sec
00055Fr 1  A0 04        	ldy     #$04
000561r 1  F1 rr        	sbc     (c_sp),y
000563r 1  48           	pha
000564r 1  A9 00        	lda     #$00
000566r 1  C8           	iny
000567r 1  F1 rr        	sbc     (c_sp),y
000569r 1  AA           	tax
00056Ar 1  68           	pla
00056Br 1  A0 02        	ldy     #$02
00056Dr 1  20 rr rr     	jsr     staxysp
000570r 1               ;
000570r 1               ; if (denom < 1) denom = 1;
000570r 1               ;
000570r 1  C9 01        	cmp     #$01
000572r 1  8A           	txa
000573r 1  E9 00        	sbc     #$00
000575r 1  50 02        	bvc     L000E
000577r 1  49 80        	eor     #$80
000579r 1  10 0A        L000E:	bpl     L000D
00057Br 1  A0 02        	ldy     #$02
00057Dr 1  A9 01        	lda     #$01
00057Fr 1  91 rr        	sta     (c_sp),y
000581r 1  3A           	dea
000582r 1  C8           	iny
000583r 1  91 rr        	sta     (c_sp),y
000585r 1               ;
000585r 1               ; proj_x[i] = CX + rx * PERSP_D / denom;
000585r 1               ;
000585r 1  A0 01        L000D:	ldy     #$01
000587r 1  B1 rr        	lda     (c_sp),y
000589r 1  85 rr        	sta     tmp1
00058Br 1  B2 rr        	lda     (c_sp)
00058Dr 1  0A           	asl     a
00058Er 1  26 rr        	rol     tmp1
000590r 1  18           	clc
000591r 1  69 rr        	adc     #<(_proj_x)
000593r 1  A8           	tay
000594r 1  A5 rr        	lda     tmp1
000596r 1  69 rr        	adc     #>(_proj_x)
000598r 1  AA           	tax
000599r 1  98           	tya
00059Ar 1  20 rr rr     	jsr     pushax
00059Dr 1  A0 0F        	ldy     #$0F
00059Fr 1  20 rr rr     	jsr     pushwysp
0005A2r 1  A9 C8        	lda     #$C8
0005A4r 1  20 rr rr     	jsr     tosmula0
0005A7r 1  20 rr rr     	jsr     pushax
0005AAr 1  A0 07        	ldy     #$07
0005ACr 1  B1 rr        	lda     (c_sp),y
0005AEr 1  AA           	tax
0005AFr 1  88           	dey
0005B0r 1  B1 rr        	lda     (c_sp),y
0005B2r 1  20 rr rr     	jsr     tosdivax
0005B5r 1  18           	clc
0005B6r 1  69 40        	adc     #$40
0005B8r 1  90 01        	bcc     L000F
0005BAr 1  E8           	inx
0005BBr 1  E8           L000F:	inx
0005BCr 1  A0 00        	ldy     #$00
0005BEr 1  20 rr rr     	jsr     staxspidx
0005C1r 1               ;
0005C1r 1               ; proj_y[i] = CY - sy * PERSP_D / denom;
0005C1r 1               ;
0005C1r 1  C8           	iny
0005C2r 1  B1 rr        	lda     (c_sp),y
0005C4r 1  85 rr        	sta     tmp1
0005C6r 1  B2 rr        	lda     (c_sp)
0005C8r 1  0A           	asl     a
0005C9r 1  26 rr        	rol     tmp1
0005CBr 1  18           	clc
0005CCr 1  69 rr        	adc     #<(_proj_y)
0005CEr 1  A8           	tay
0005CFr 1  A5 rr        	lda     tmp1
0005D1r 1  69 rr        	adc     #>(_proj_y)
0005D3r 1  AA           	tax
0005D4r 1  98           	tya
0005D5r 1  20 rr rr     	jsr     pushax
0005D8r 1  A9 B4        	lda     #$B4
0005DAr 1  20 rr rr     	jsr     pusha0
0005DDr 1  A0 0D        	ldy     #$0D
0005DFr 1  20 rr rr     	jsr     pushwysp
0005E2r 1  A9 C8        	lda     #$C8
0005E4r 1  20 rr rr     	jsr     tosmula0
0005E7r 1  20 rr rr     	jsr     pushax
0005EAr 1  A0 09        	ldy     #$09
0005ECr 1  B1 rr        	lda     (c_sp),y
0005EEr 1  AA           	tax
0005EFr 1  88           	dey
0005F0r 1  B1 rr        	lda     (c_sp),y
0005F2r 1  20 rr rr     	jsr     tosdivax
0005F5r 1  20 rr rr     	jsr     tossubax
0005F8r 1  A0 00        	ldy     #$00
0005FAr 1  20 rr rr     	jsr     staxspidx
0005FDr 1               ;
0005FDr 1               ; proj_r[i] = BASE_CIRCLE_R * PERSP_D / denom;
0005FDr 1               ;
0005FDr 1  C8           	iny
0005FEr 1  B1 rr        	lda     (c_sp),y
000600r 1  85 rr        	sta     tmp1
000602r 1  B2 rr        	lda     (c_sp)
000604r 1  0A           	asl     a
000605r 1  26 rr        	rol     tmp1
000607r 1  18           	clc
000608r 1  69 rr        	adc     #<(_proj_r)
00060Ar 1  A8           	tay
00060Br 1  A5 rr        	lda     tmp1
00060Dr 1  69 rr        	adc     #>(_proj_r)
00060Fr 1  AA           	tax
000610r 1  98           	tya
000611r 1  20 rr rr     	jsr     pushax
000614r 1  A2 01        	ldx     #$01
000616r 1  A9 90        	lda     #$90
000618r 1  20 rr rr     	jsr     pushax
00061Br 1  A0 07        	ldy     #$07
00061Dr 1  B1 rr        	lda     (c_sp),y
00061Fr 1  AA           	tax
000620r 1  88           	dey
000621r 1  B1 rr        	lda     (c_sp),y
000623r 1  20 rr rr     	jsr     tosdivax
000626r 1  A0 00        	ldy     #$00
000628r 1  20 rr rr     	jsr     staxspidx
00062Br 1               ;
00062Br 1               ; if (proj_r[i] < 1) proj_r[i] = 1;
00062Br 1               ;
00062Br 1  C8           	iny
00062Cr 1  B1 rr        	lda     (c_sp),y
00062Er 1  85 rr        	sta     tmp1
000630r 1  B2 rr        	lda     (c_sp)
000632r 1  0A           	asl     a
000633r 1  26 rr        	rol     tmp1
000635r 1  18           	clc
000636r 1  69 rr        	adc     #<(_proj_r)
000638r 1  85 rr        	sta     ptr1
00063Ar 1  A5 rr        	lda     tmp1
00063Cr 1  69 rr        	adc     #>(_proj_r)
00063Er 1  85 rr        	sta     ptr1+1
000640r 1  A0 01        	ldy     #$01
000642r 1  B1 rr        	lda     (ptr1),y
000644r 1  AA           	tax
000645r 1  B2 rr        	lda     (ptr1)
000647r 1  C9 01        	cmp     #$01
000649r 1  8A           	txa
00064Ar 1  E9 00        	sbc     #$00
00064Cr 1  50 02        	bvc     L0011
00064Er 1  49 80        	eor     #$80
000650r 1  0A           L0011:	asl     a
000651r 1  A2 00        	ldx     #$00
000653r 1  90 1E        	bcc     L0013
000655r 1  A0 01        	ldy     #$01
000657r 1  B1 rr        	lda     (c_sp),y
000659r 1  85 rr        	sta     tmp1
00065Br 1  B2 rr        	lda     (c_sp)
00065Dr 1  0A           	asl     a
00065Er 1  26 rr        	rol     tmp1
000660r 1  18           	clc
000661r 1  69 rr        	adc     #<(_proj_r)
000663r 1  85 rr        	sta     ptr1
000665r 1  A5 rr        	lda     tmp1
000667r 1  69 rr        	adc     #>(_proj_r)
000669r 1  85 rr        	sta     ptr1+1
00066Br 1  98           	tya
00066Cr 1  92 rr        	sta     (ptr1)
00066Er 1  A8           	tay
00066Fr 1  3A           	dea
000670r 1  91 rr        	sta     (ptr1),y
000672r 1               ;
000672r 1               ; for (i = 0; i < 8; i++)
000672r 1               ;
000672r 1  AA           	tax
000673r 1  98           L0013:	tya
000674r 1  20 rr rr     	jsr     addeq0sp
000677r 1  4C rr rr     	jmp     L0002
00067Ar 1               ;
00067Ar 1               ; }
00067Ar 1               ;
00067Ar 1  A0 18        L0003:	ldy     #$18
00067Cr 1  4C rr rr     	jmp     addysp
00067Fr 1               
00067Fr 1               .endproc
00067Fr 1               
00067Fr 1               ; ---------------------------------------------------------------
00067Fr 1               ; void __near__ main (void)
00067Fr 1               ; ---------------------------------------------------------------
00067Fr 1               
00067Fr 1               .segment	"CODE"
00067Fr 1               
00067Fr 1               .proc	_main: near
00067Fr 1               
00067Fr 1               .segment	"CODE"
00067Fr 1               
00067Fr 1               ;
00067Fr 1               ; int angle = 0;
00067Fr 1               ;
00067Fr 1  20 rr rr     	jsr     push0
000682r 1               ;
000682r 1               ; xreg_vga_canvas(4);
000682r 1               ;
000682r 1  20 rr rr     	jsr     decsp6
000685r 1  A9 01        	lda     #$01
000687r 1  A0 02        	ldy     #$02
000689r 1  91 rr        	sta     (c_sp),y
00068Br 1  3A           	dea
00068Cr 1  88           	dey
00068Dr 1  91 rr        	sta     (c_sp),y
00068Fr 1  92 rr        	sta     (c_sp)
000691r 1  A9 04        	lda     #$04
000693r 1  20 rr rr     	jsr     pusha0
000696r 1  A0 05        	ldy     #$05
000698r 1  20 rr rr     	jsr     _xreg
00069Br 1               ;
00069Br 1               ; back_buf = FB_A; clear_fb();
00069Br 1               ;
00069Br 1  9C rr rr     	stz     _back_buf
00069Er 1  9C rr rr     	stz     _back_buf+1
0006A1r 1  20 rr rr     	jsr     _clear_fb
0006A4r 1               ;
0006A4r 1               ; back_buf = FB_B; clear_fb();
0006A4r 1               ;
0006A4r 1  A2 70        	ldx     #$70
0006A6r 1  A9 80        	lda     #$80
0006A8r 1  8D rr rr     	sta     _back_buf
0006ABr 1  8E rr rr     	stx     _back_buf+1
0006AEr 1  20 rr rr     	jsr     _clear_fb
0006B1r 1               ;
0006B1r 1               ; xram0_struct_set(CFG_ADDR, vga_mode3_config_t, x_wrap,           false);
0006B1r 1               ;
0006B1r 1  A2 FF        	ldx     #$FF
0006B3r 1  9C E6 FF     	stz     $FFE6
0006B6r 1  8E E7 FF     	stx     $FFE6+1
0006B9r 1  9C E4 FF     	stz     $FFE4
0006BCr 1               ;
0006BCr 1               ; xram0_struct_set(CFG_ADDR, vga_mode3_config_t, y_wrap,           false);
0006BCr 1               ;
0006BCr 1  A9 01        	lda     #$01
0006BEr 1  8D E6 FF     	sta     $FFE6
0006C1r 1  8E E7 FF     	stx     $FFE6+1
0006C4r 1  9C E4 FF     	stz     $FFE4
0006C7r 1               ;
0006C7r 1               ; xram0_struct_set(CFG_ADDR, vga_mode3_config_t, x_pos_px,         0);
0006C7r 1               ;
0006C7r 1  1A           	ina
0006C8r 1  8D E6 FF     	sta     $FFE6
0006CBr 1  8E E7 FF     	stx     $FFE6+1
0006CEr 1  3A           	dea
0006CFr 1  8D E5 FF     	sta     $FFE5
0006D2r 1  9C E4 FF     	stz     $FFE4
0006D5r 1  9C E4 FF     	stz     $FFE4
0006D8r 1               ;
0006D8r 1               ; xram0_struct_set(CFG_ADDR, vga_mode3_config_t, y_pos_px,         0);
0006D8r 1               ;
0006D8r 1  A9 04        	lda     #$04
0006DAr 1  8D E6 FF     	sta     $FFE6
0006DDr 1  8E E7 FF     	stx     $FFE6+1
0006E0r 1  A9 01        	lda     #$01
0006E2r 1  8D E5 FF     	sta     $FFE5
0006E5r 1  9C E4 FF     	stz     $FFE4
0006E8r 1  9C E4 FF     	stz     $FFE4
0006EBr 1               ;
0006EBr 1               ; xram0_struct_set(CFG_ADDR, vga_mode3_config_t, width_px,         FB_WIDTH);
0006EBr 1               ;
0006EBr 1  A9 06        	lda     #$06
0006EDr 1  8D E6 FF     	sta     $FFE6
0006F0r 1  8E E7 FF     	stx     $FFE6+1
0006F3r 1  A9 01        	lda     #$01
0006F5r 1  8D E5 FF     	sta     $FFE5
0006F8r 1  A9 80        	lda     #$80
0006FAr 1  8D E4 FF     	sta     $FFE4
0006FDr 1  A9 02        	lda     #$02
0006FFr 1  8D E4 FF     	sta     $FFE4
000702r 1               ;
000702r 1               ; xram0_struct_set(CFG_ADDR, vga_mode3_config_t, height_px,        FB_HEIGHT);
000702r 1               ;
000702r 1  A9 08        	lda     #$08
000704r 1  8D E6 FF     	sta     $FFE6
000707r 1  8E E7 FF     	stx     $FFE6+1
00070Ar 1  A9 01        	lda     #$01
00070Cr 1  8D E5 FF     	sta     $FFE5
00070Fr 1  A9 68        	lda     #$68
000711r 1  8D E4 FF     	sta     $FFE4
000714r 1  A9 01        	lda     #$01
000716r 1  8D E4 FF     	sta     $FFE4
000719r 1               ;
000719r 1               ; xram0_struct_set(CFG_ADDR, vga_mode3_config_t, xram_data_ptr,    FB_A);
000719r 1               ;
000719r 1  A9 0A        	lda     #$0A
00071Br 1  8D E6 FF     	sta     $FFE6
00071Er 1  8E E7 FF     	stx     $FFE6+1
000721r 1  A9 01        	lda     #$01
000723r 1  8D E5 FF     	sta     $FFE5
000726r 1  9C E4 FF     	stz     $FFE4
000729r 1  9C E4 FF     	stz     $FFE4
00072Cr 1               ;
00072Cr 1               ; xram0_struct_set(CFG_ADDR, vga_mode3_config_t, xram_palette_ptr, 0xFFFF);
00072Cr 1               ;
00072Cr 1  A9 0C        	lda     #$0C
00072Er 1  8D E6 FF     	sta     $FFE6
000731r 1  8E E7 FF     	stx     $FFE6+1
000734r 1  A9 01        	lda     #$01
000736r 1  8D E5 FF     	sta     $FFE5
000739r 1  8A           	txa
00073Ar 1  8D E4 FF     	sta     $FFE4
00073Dr 1  8D E4 FF     	sta     $FFE4
000740r 1               ;
000740r 1               ; xreg_vga_mode(3, 0, CFG_ADDR, 0, 0, 0);
000740r 1               ;
000740r 1  20 rr rr     	jsr     decsp3
000743r 1  A9 01        	lda     #$01
000745r 1  A0 02        	ldy     #$02
000747r 1  91 rr        	sta     (c_sp),y
000749r 1  3A           	dea
00074Ar 1  88           	dey
00074Br 1  91 rr        	sta     (c_sp),y
00074Dr 1  98           	tya
00074Er 1  92 rr        	sta     (c_sp)
000750r 1  A9 03        	lda     #$03
000752r 1  20 rr rr     	jsr     pusha0
000755r 1  20 rr rr     	jsr     push0
000758r 1  A2 FF        	ldx     #$FF
00075Ar 1  20 rr rr     	jsr     pushax
00075Dr 1  20 rr rr     	jsr     push0
000760r 1  20 rr rr     	jsr     push0
000763r 1  20 rr rr     	jsr     push0
000766r 1  A0 0F        	ldy     #$0F
000768r 1  20 rr rr     	jsr     _xreg
00076Br 1               ;
00076Br 1               ; xreg_ria_keyboard(KEYBOARD_ADDR);
00076Br 1               ;
00076Br 1  20 rr rr     	jsr     decsp3
00076Er 1  A9 00        	lda     #$00
000770r 1  A0 02        	ldy     #$02
000772r 1  91 rr        	sta     (c_sp),y
000774r 1  88           	dey
000775r 1  91 rr        	sta     (c_sp),y
000777r 1  92 rr        	sta     (c_sp)
000779r 1  A2 FF        	ldx     #$FF
00077Br 1  A9 10        	lda     #$10
00077Dr 1  20 rr rr     	jsr     pushax
000780r 1  A0 05        	ldy     #$05
000782r 1  20 rr rr     	jsr     _xreg
000785r 1               ;
000785r 1               ; back_buf = FB_B;
000785r 1               ;
000785r 1  A2 70        	ldx     #$70
000787r 1  A9 80        	lda     #$80
000789r 1  8D rr rr     	sta     _back_buf
00078Cr 1  8E rr rr     	stx     _back_buf+1
00078Fr 1               ;
00078Fr 1               ; if (alt_f4_pressed())
00078Fr 1               ;
00078Fr 1  20 rr rr     L002A:	jsr     _alt_f4_pressed
000792r 1  AA           	tax
000793r 1               ;
000793r 1               ; break;
000793r 1               ;
000793r 1  F0 03 4C rr  	jne     L002B
000797r 1  rr           
000798r 1               ;
000798r 1               ; clear_fb();
000798r 1               ;
000798r 1  20 rr rr     	jsr     _clear_fb
00079Br 1               ;
00079Br 1               ; project_vertices(angle);
00079Br 1               ;
00079Br 1  A0 04        	ldy     #$04
00079Dr 1  B1 rr        	lda     (c_sp),y
00079Fr 1  AA           	tax
0007A0r 1  88           	dey
0007A1r 1  B1 rr        	lda     (c_sp),y
0007A3r 1  20 rr rr     	jsr     _project_vertices
0007A6r 1               ;
0007A6r 1               ; RIA.step0 = 0;  /* required for read-modify-write in set_pixel */
0007A6r 1               ;
0007A6r 1  9C E5 FF     	stz     $FFE5
0007A9r 1               ;
0007A9r 1               ; if (angle < 180)
0007A9r 1               ;
0007A9r 1  A0 04        	ldy     #$04
0007ABr 1  B1 rr        	lda     (c_sp),y
0007ADr 1  AA           	tax
0007AEr 1  88           	dey
0007AFr 1  B1 rr        	lda     (c_sp),y
0007B1r 1  C9 B4        	cmp     #$B4
0007B3r 1  8A           	txa
0007B4r 1  E9 00        	sbc     #$00
0007B6r 1  50 02        	bvc     L002F
0007B8r 1  49 80        	eor     #$80
0007BAr 1  30 03 4C rr  L002F:	jpl     L0059
0007BEr 1  rr           
0007BFr 1               ;
0007BFr 1               ; for (e = 0; e < 12; e++)
0007BFr 1               ;
0007BFr 1  A9 00        	lda     #$00
0007C1r 1  92 rr        	sta     (c_sp)
0007C3r 1  A0 01        	ldy     #$01
0007C5r 1  91 rr        	sta     (c_sp),y
0007C7r 1  A0 01        L0030:	ldy     #$01
0007C9r 1  B1 rr        	lda     (c_sp),y
0007CBr 1  AA           	tax
0007CCr 1  B2 rr        	lda     (c_sp)
0007CEr 1  C9 0C        	cmp     #$0C
0007D0r 1  8A           	txa
0007D1r 1  E9 00        	sbc     #$00
0007D3r 1  50 02        	bvc     L0034
0007D5r 1  49 80        	eor     #$80
0007D7r 1  30 03 4C rr  L0034:	jpl     L005A
0007DBr 1  rr           
0007DCr 1               ;
0007DCr 1               ; draw_line(proj_x[edges[e][0]], proj_y[edges[e][0]],
0007DCr 1               ;
0007DCr 1  20 rr rr     	jsr     decsp6
0007DFr 1  A0 07        	ldy     #$07
0007E1r 1  B1 rr        	lda     (c_sp),y
0007E3r 1  85 rr        	sta     tmp1
0007E5r 1  88           	dey
0007E6r 1  B1 rr        	lda     (c_sp),y
0007E8r 1  0A           	asl     a
0007E9r 1  26 rr        	rol     tmp1
0007EBr 1  85 rr        	sta     ptr1
0007EDr 1  A5 rr        	lda     tmp1
0007EFr 1  18           	clc
0007F0r 1  69 rr        	adc     #>(_edges)
0007F2r 1  85 rr        	sta     ptr1+1
0007F4r 1  A0 rr        	ldy     #<(_edges)
0007F6r 1  A2 00        	ldx     #$00
0007F8r 1  B1 rr        	lda     (ptr1),y
0007FAr 1  0A           	asl     a
0007FBr 1  90 02        	bcc     L004E
0007FDr 1  E8           	inx
0007FEr 1  18           	clc
0007FFr 1  69 rr        L004E:	adc     #<(_proj_x)
000801r 1  85 rr        	sta     ptr1
000803r 1  8A           	txa
000804r 1  69 rr        	adc     #>(_proj_x)
000806r 1  85 rr        	sta     ptr1+1
000808r 1  A0 01        	ldy     #$01
00080Ar 1  B1 rr        	lda     (ptr1),y
00080Cr 1  AA           	tax
00080Dr 1  B2 rr        	lda     (ptr1)
00080Fr 1  A0 04        	ldy     #$04
000811r 1  91 rr        	sta     (c_sp),y
000813r 1  C8           	iny
000814r 1  8A           	txa
000815r 1  91 rr        	sta     (c_sp),y
000817r 1  A0 07        	ldy     #$07
000819r 1  B1 rr        	lda     (c_sp),y
00081Br 1  85 rr        	sta     tmp1
00081Dr 1  88           	dey
00081Er 1  B1 rr        	lda     (c_sp),y
000820r 1  0A           	asl     a
000821r 1  26 rr        	rol     tmp1
000823r 1  85 rr        	sta     ptr1
000825r 1  A5 rr        	lda     tmp1
000827r 1  18           	clc
000828r 1  69 rr        	adc     #>(_edges)
00082Ar 1  85 rr        	sta     ptr1+1
00082Cr 1  A0 rr        	ldy     #<(_edges)
00082Er 1  A2 00        	ldx     #$00
000830r 1  B1 rr        	lda     (ptr1),y
000832r 1  0A           	asl     a
000833r 1  90 02        	bcc     L004F
000835r 1  E8           	inx
000836r 1  18           	clc
000837r 1  69 rr        L004F:	adc     #<(_proj_y)
000839r 1  85 rr        	sta     ptr1
00083Br 1  8A           	txa
00083Cr 1  69 rr        	adc     #>(_proj_y)
00083Er 1  85 rr        	sta     ptr1+1
000840r 1  A0 01        	ldy     #$01
000842r 1  B1 rr        	lda     (ptr1),y
000844r 1  AA           	tax
000845r 1  B2 rr        	lda     (ptr1)
000847r 1  C8           	iny
000848r 1  91 rr        	sta     (c_sp),y
00084Ar 1  C8           	iny
00084Br 1  8A           	txa
00084Cr 1  91 rr        	sta     (c_sp),y
00084Er 1               ;
00084Er 1               ; proj_x[edges[e][1]], proj_y[edges[e][1]]);
00084Er 1               ;
00084Er 1  A0 07        	ldy     #$07
000850r 1  B1 rr        	lda     (c_sp),y
000852r 1  85 rr        	sta     tmp1
000854r 1  88           	dey
000855r 1  B1 rr        	lda     (c_sp),y
000857r 1  0A           	asl     a
000858r 1  26 rr        	rol     tmp1
00085Ar 1  18           	clc
00085Br 1  69 rr        	adc     #<(_edges)
00085Dr 1  A8           	tay
00085Er 1  A5 rr        	lda     tmp1
000860r 1  69 rr        	adc     #>(_edges)
000862r 1  AA           	tax
000863r 1  98           	tya
000864r 1  1A           	ina
000865r 1  D0 01        	bne     L0035
000867r 1  E8           	inx
000868r 1  85 rr        L0035:	sta     ptr1
00086Ar 1  86 rr        	stx     ptr1+1
00086Cr 1  B2 rr        	lda     (ptr1)
00086Er 1  64 rr        	stz     tmp1
000870r 1  0A           	asl     a
000871r 1  26 rr        	rol     tmp1
000873r 1  18           	clc
000874r 1  69 rr        	adc     #<(_proj_x)
000876r 1  85 rr        	sta     ptr1
000878r 1  A5 rr        	lda     tmp1
00087Ar 1  69 rr        	adc     #>(_proj_x)
00087Cr 1  85 rr        	sta     ptr1+1
00087Er 1  A0 01        	ldy     #$01
000880r 1  B1 rr        	lda     (ptr1),y
000882r 1  AA           	tax
000883r 1  B2 rr        	lda     (ptr1)
000885r 1  92 rr        	sta     (c_sp)
000887r 1  A0 01        	ldy     #$01
000889r 1  8A           	txa
00088Ar 1  91 rr        	sta     (c_sp),y
00088Cr 1  A0 07        	ldy     #$07
00088Er 1  B1 rr        	lda     (c_sp),y
000890r 1  85 rr        	sta     tmp1
000892r 1  88           	dey
000893r 1  B1 rr        	lda     (c_sp),y
000895r 1  0A           	asl     a
000896r 1  26 rr        	rol     tmp1
000898r 1  18           	clc
000899r 1  69 rr        	adc     #<(_edges)
00089Br 1  A8           	tay
00089Cr 1  A5 rr        	lda     tmp1
00089Er 1  69 rr        	adc     #>(_edges)
0008A0r 1  AA           	tax
0008A1r 1  98           	tya
0008A2r 1  1A           	ina
0008A3r 1  D0 01        	bne     L0036
0008A5r 1  E8           	inx
0008A6r 1  85 rr        L0036:	sta     ptr1
0008A8r 1  86 rr        	stx     ptr1+1
0008AAr 1  B2 rr        	lda     (ptr1)
0008ACr 1  64 rr        	stz     tmp1
0008AEr 1  0A           	asl     a
0008AFr 1  26 rr        	rol     tmp1
0008B1r 1  18           	clc
0008B2r 1  69 rr        	adc     #<(_proj_y)
0008B4r 1  85 rr        	sta     ptr1
0008B6r 1  A5 rr        	lda     tmp1
0008B8r 1  69 rr        	adc     #>(_proj_y)
0008BAr 1  85 rr        	sta     ptr1+1
0008BCr 1  A0 01        	ldy     #$01
0008BEr 1  B1 rr        	lda     (ptr1),y
0008C0r 1  AA           	tax
0008C1r 1  B2 rr        	lda     (ptr1)
0008C3r 1  20 rr rr     	jsr     _draw_line
0008C6r 1               ;
0008C6r 1               ; for (e = 0; e < 12; e++)
0008C6r 1               ;
0008C6r 1  A2 00        	ldx     #$00
0008C8r 1  A9 01        	lda     #$01
0008CAr 1  20 rr rr     	jsr     addeq0sp
0008CDr 1  4C rr rr     	jmp     L0030
0008D0r 1               ;
0008D0r 1               ; for (e = 0; e < 8; e++)
0008D0r 1               ;
0008D0r 1  A9 00        L0059:	lda     #$00
0008D2r 1  92 rr        	sta     (c_sp)
0008D4r 1  A0 01        	ldy     #$01
0008D6r 1  91 rr        	sta     (c_sp),y
0008D8r 1  A0 01        L0038:	ldy     #$01
0008DAr 1  B1 rr        	lda     (c_sp),y
0008DCr 1  AA           	tax
0008DDr 1  B2 rr        	lda     (c_sp)
0008DFr 1  C9 08        	cmp     #$08
0008E1r 1  8A           	txa
0008E2r 1  E9 00        	sbc     #$00
0008E4r 1  50 02        	bvc     L003C
0008E6r 1  49 80        	eor     #$80
0008E8r 1  10 49        L003C:	bpl     L005A
0008EAr 1               ;
0008EAr 1               ; set_pixel(proj_x[e], proj_y[e]);
0008EAr 1               ;
0008EAr 1  A0 01        	ldy     #$01
0008ECr 1  B1 rr        	lda     (c_sp),y
0008EEr 1  85 rr        	sta     tmp1
0008F0r 1  B2 rr        	lda     (c_sp)
0008F2r 1  0A           	asl     a
0008F3r 1  26 rr        	rol     tmp1
0008F5r 1  18           	clc
0008F6r 1  69 rr        	adc     #<(_proj_x)
0008F8r 1  85 rr        	sta     ptr1
0008FAr 1  A5 rr        	lda     tmp1
0008FCr 1  69 rr        	adc     #>(_proj_x)
0008FEr 1  85 rr        	sta     ptr1+1
000900r 1  A0 01        	ldy     #$01
000902r 1  B1 rr        	lda     (ptr1),y
000904r 1  AA           	tax
000905r 1  B2 rr        	lda     (ptr1)
000907r 1  20 rr rr     	jsr     pushax
00090Ar 1  A0 03        	ldy     #$03
00090Cr 1  B1 rr        	lda     (c_sp),y
00090Er 1  85 rr        	sta     tmp1
000910r 1  88           	dey
000911r 1  B1 rr        	lda     (c_sp),y
000913r 1  0A           	asl     a
000914r 1  26 rr        	rol     tmp1
000916r 1  18           	clc
000917r 1  69 rr        	adc     #<(_proj_y)
000919r 1  85 rr        	sta     ptr1
00091Br 1  A5 rr        	lda     tmp1
00091Dr 1  69 rr        	adc     #>(_proj_y)
00091Fr 1  85 rr        	sta     ptr1+1
000921r 1  88           	dey
000922r 1  B1 rr        	lda     (ptr1),y
000924r 1  AA           	tax
000925r 1  B2 rr        	lda     (ptr1)
000927r 1  20 rr rr     	jsr     _set_pixel
00092Ar 1               ;
00092Ar 1               ; for (e = 0; e < 8; e++)
00092Ar 1               ;
00092Ar 1  A2 00        	ldx     #$00
00092Cr 1  A9 01        	lda     #$01
00092Er 1  20 rr rr     	jsr     addeq0sp
000931r 1  80 A5        	bra     L0038
000933r 1               ;
000933r 1               ; v = RIA.vsync;
000933r 1               ;
000933r 1  AD E3 FF     L005A:	lda     $FFE3
000936r 1  C8           	iny
000937r 1  91 rr        	sta     (c_sp),y
000939r 1               ;
000939r 1               ; while (RIA.vsync == v)
000939r 1               ;
000939r 1  AD E3 FF     L005B:	lda     $FFE3
00093Cr 1  D1 rr        	cmp     (c_sp),y
00093Er 1  F0 F9        	beq     L005B
000940r 1               ;
000940r 1               ; xram0_struct_set(CFG_ADDR, vga_mode3_config_t, xram_data_ptr, back_buf);
000940r 1               ;
000940r 1  A2 FF        	ldx     #$FF
000942r 1  A9 0A        	lda     #$0A
000944r 1  8D E6 FF     	sta     $FFE6
000947r 1  8E E7 FF     	stx     $FFE6+1
00094Ar 1  A9 01        	lda     #$01
00094Cr 1  8D E5 FF     	sta     $FFE5
00094Fr 1  AD rr rr     	lda     _back_buf
000952r 1  8D E4 FF     	sta     $FFE4
000955r 1  AD rr rr     	lda     _back_buf+1
000958r 1  E8           	inx
000959r 1  8D E4 FF     	sta     $FFE4
00095Cr 1               ;
00095Cr 1               ; back_buf = (back_buf == FB_A) ? FB_B : FB_A;
00095Cr 1               ;
00095Cr 1  AD rr rr     	lda     _back_buf
00095Fr 1  0D rr rr     	ora     _back_buf+1
000962r 1  D0 06        	bne     L005D
000964r 1  A2 70        	ldx     #$70
000966r 1  A9 80        	lda     #$80
000968r 1  80 01        	bra     L0047
00096Ar 1  8A           L005D:	txa
00096Br 1  8D rr rr     L0047:	sta     _back_buf
00096Er 1  8E rr rr     	stx     _back_buf+1
000971r 1               ;
000971r 1               ; angle += 2;
000971r 1               ;
000971r 1  A0 03        	ldy     #$03
000973r 1  A2 00        	ldx     #$00
000975r 1  A9 02        	lda     #$02
000977r 1  20 rr rr     	jsr     addeqysp
00097Ar 1               ;
00097Ar 1               ; if (angle >= 360) angle = 0;
00097Ar 1               ;
00097Ar 1  A0 04        	ldy     #$04
00097Cr 1  B1 rr        	lda     (c_sp),y
00097Er 1  AA           	tax
00097Fr 1  88           	dey
000980r 1  B1 rr        	lda     (c_sp),y
000982r 1  C9 68        	cmp     #$68
000984r 1  8A           	txa
000985r 1  E9 01        	sbc     #$01
000987r 1  70 02        	bvs     L0049
000989r 1  49 80        	eor     #$80
00098Br 1  30 03 4C rr  L0049:	jpl     L002A
00098Fr 1  rr           
000990r 1  A9 00        	lda     #$00
000992r 1  91 rr        	sta     (c_sp),y
000994r 1  C8           	iny
000995r 1  91 rr        	sta     (c_sp),y
000997r 1               ;
000997r 1               ; while (1)
000997r 1               ;
000997r 1  4C rr rr     	jmp     L002A
00099Ar 1               ;
00099Ar 1               ; xreg_ria_keyboard(0xFFFF);
00099Ar 1               ;
00099Ar 1  20 rr rr     L002B:	jsr     decsp3
00099Dr 1  A9 00        	lda     #$00
00099Fr 1  A0 02        	ldy     #$02
0009A1r 1  91 rr        	sta     (c_sp),y
0009A3r 1  88           	dey
0009A4r 1  91 rr        	sta     (c_sp),y
0009A6r 1  92 rr        	sta     (c_sp)
0009A8r 1  A2 FF        	ldx     #$FF
0009AAr 1  8A           	txa
0009ABr 1  20 rr rr     	jsr     pushax
0009AEr 1  A0 05        	ldy     #$05
0009B0r 1  20 rr rr     	jsr     _xreg
0009B3r 1               ;
0009B3r 1               ; exit(0);
0009B3r 1               ;
0009B3r 1  A2 00        	ldx     #$00
0009B5r 1  8A           	txa
0009B6r 1  4C rr rr     	jmp     _exit
0009B9r 1               
0009B9r 1               .endproc
0009B9r 1               
0009B9r 1               
